target datalayout = "e-m:e-p270:32:32-p271:32:32-p272:64:64-i64:64-i128:128-f80:128-n8:16:32:64-S128"
target triple = "x86_64-pc-linux-gnu"

%struct.RsaKey = type { %struct.sp_int, %struct.sp_int, %struct.sp_int, %struct.sp_int, %struct.sp_int, %struct.sp_int, %struct.sp_int, %struct.sp_int, ptr, ptr, i32, i32, i32, ptr, i8 }
%struct.sp_int = type { i16, i16, [129 x i64] }

; Function Attrs: nounwind uwtable
define i32 @wc_InitRsaKey_ex(ptr noundef %0, ptr noundef %1, i32 noundef %2) #0 {
  %4 = alloca i32, align 4
  %5 = alloca ptr, align 8
  %6 = alloca ptr, align 8
  %7 = alloca i32, align 4
  %8 = alloca i32, align 4
  %9 = alloca i32, align 4
  store ptr %0, ptr %5, align 8, !tbaa !11
  store ptr %1, ptr %6, align 8, !tbaa !3
  store i32 %2, ptr %7, align 4, !tbaa !7
  call void @llvm.lifetime.start.p0(i64 4, ptr %8) #8
  store i32 0, ptr %8, align 4, !tbaa !7
  %10 = load ptr, ptr %5, align 8, !tbaa !11
  %11 = icmp eq ptr %10, null
  br i1 %11, label %12, label %13

12:                                               ; preds = %3
  store i32 -173, ptr %4, align 4
  store i32 1, ptr %9, align 4
  br label %63

13:                                               ; preds = %3
  %14 = load ptr, ptr %5, align 8, !tbaa !11
  call void @llvm.memset.p0.i64(ptr align 8 %14, i8 0, i64 8368, i1 false)
  %15 = load ptr, ptr %5, align 8, !tbaa !11
  %16 = getelementptr inbounds nuw %struct.RsaKey, ptr %15, i32 0, i32 10
  store i32 -1, ptr %16, align 8, !tbaa !13
  %17 = load ptr, ptr %5, align 8, !tbaa !11
  %18 = getelementptr inbounds nuw %struct.RsaKey, ptr %17, i32 0, i32 11
  store i32 0, ptr %18, align 4, !tbaa !19
  %19 = load ptr, ptr %6, align 8, !tbaa !3
  %20 = load ptr, ptr %5, align 8, !tbaa !11
  %21 = getelementptr inbounds nuw %struct.RsaKey, ptr %20, i32 0, i32 8
  store ptr %19, ptr %21, align 8, !tbaa !20
  %22 = load ptr, ptr %5, align 8, !tbaa !11
  %23 = getelementptr inbounds nuw %struct.RsaKey, ptr %22, i32 0, i32 14
  store i8 0, ptr %23, align 8, !tbaa !21
  %24 = load ptr, ptr %5, align 8, !tbaa !11
  %25 = getelementptr inbounds nuw %struct.RsaKey, ptr %24, i32 0, i32 9
  store ptr null, ptr %25, align 8, !tbaa !22
  %26 = load ptr, ptr %5, align 8, !tbaa !11
  %27 = getelementptr inbounds nuw %struct.RsaKey, ptr %26, i32 0, i32 12
  store i32 0, ptr %27, align 8, !tbaa !23
  %28 = load ptr, ptr %5, align 8, !tbaa !11
  %29 = getelementptr inbounds nuw %struct.RsaKey, ptr %28, i32 0, i32 13
  store ptr null, ptr %29, align 8, !tbaa !24
  %30 = load ptr, ptr %5, align 8, !tbaa !11
  %31 = getelementptr inbounds nuw %struct.RsaKey, ptr %30, i32 0, i32 0
  %32 = load ptr, ptr %5, align 8, !tbaa !11
  %33 = getelementptr inbounds nuw %struct.RsaKey, ptr %32, i32 0, i32 1
  %34 = call i32 @sp_init_multi(ptr noundef %31, ptr noundef %33, ptr noundef null, ptr noundef null, ptr noundef null, ptr noundef null)
  store i32 %34, ptr %8, align 4, !tbaa !7
  %35 = load i32, ptr %8, align 4, !tbaa !7
  %36 = icmp ne i32 %35, 0
  br i1 %36, label %37, label %39

37:                                               ; preds = %13
  %38 = load i32, ptr %8, align 4, !tbaa !7
  store i32 %38, ptr %4, align 4
  store i32 1, ptr %9, align 4
  br label %63

39:                                               ; preds = %13
  %40 = load ptr, ptr %5, align 8, !tbaa !11
  %41 = getelementptr inbounds nuw %struct.RsaKey, ptr %40, i32 0, i32 2
  %42 = load ptr, ptr %5, align 8, !tbaa !11
  %43 = getelementptr inbounds nuw %struct.RsaKey, ptr %42, i32 0, i32 3
  %44 = load ptr, ptr %5, align 8, !tbaa !11
  %45 = getelementptr inbounds nuw %struct.RsaKey, ptr %44, i32 0, i32 4
  %46 = load ptr, ptr %5, align 8, !tbaa !11
  %47 = getelementptr inbounds nuw %struct.RsaKey, ptr %46, i32 0, i32 5
  %48 = load ptr, ptr %5, align 8, !tbaa !11
  %49 = getelementptr inbounds nuw %struct.RsaKey, ptr %48, i32 0, i32 6
  %50 = load ptr, ptr %5, align 8, !tbaa !11
  %51 = getelementptr inbounds nuw %struct.RsaKey, ptr %50, i32 0, i32 7
  %52 = call i32 @sp_init_multi(ptr noundef %41, ptr noundef %43, ptr noundef %45, ptr noundef %47, ptr noundef %49, ptr noundef %51)
  store i32 %52, ptr %8, align 4, !tbaa !7
  %53 = load i32, ptr %8, align 4, !tbaa !7
  %54 = icmp ne i32 %53, 0
  br i1 %54, label %55, label %61

55:                                               ; preds = %39
  %56 = load ptr, ptr %5, align 8, !tbaa !11
  %57 = getelementptr inbounds nuw %struct.RsaKey, ptr %56, i32 0, i32 0
  call void @sp_clear(ptr noundef %57)
  %58 = load ptr, ptr %5, align 8, !tbaa !11
  %59 = getelementptr inbounds nuw %struct.RsaKey, ptr %58, i32 0, i32 1
  call void @sp_clear(ptr noundef %59)
  %60 = load i32, ptr %8, align 4, !tbaa !7
  store i32 %60, ptr %4, align 4
  store i32 1, ptr %9, align 4
  br label %63

61:                                               ; preds = %39
  %62 = load i32, ptr %8, align 4, !tbaa !7
  store i32 %62, ptr %4, align 4
  store i32 1, ptr %9, align 4
  br label %63

63:                                               ; preds = %61, %55, %37, %12
  call void @llvm.lifetime.end.p0(i64 4, ptr %8) #8
  %64 = load i32, ptr %4, align 4
  ret i32 %64
}