; Function Attrs: nounwind uwtable
define i32 @wc_InitRsaKey_ex(ptr noundef %0, ptr noundef %1, i32 noundef %2) local_unnamed_addr #0 {
  %4 = icmp eq ptr %0, null
  br i1 %4, label %21, label %5

5:                                                ; preds = %3
  tail call void @llvm.memset.p0.i64(ptr noundef nonnull align 8 dereferenceable(8368) %0, i8 0, i64 8368, i1 false)
  %6 = getelementptr inbounds nuw i8, ptr %0, i64 8336
  store i32 -1, ptr %6, align 8, !tbaa !3
  %7 = getelementptr inbounds nuw i8, ptr %0, i64 8320
  store ptr %1, ptr %7, align 8, !tbaa !13
  %8 = getelementptr inbounds nuw i8, ptr %0, i64 8328
  store ptr null, ptr %8, align 8, !tbaa !16
  %9 = getelementptr inbounds nuw i8, ptr %0, i64 8352
  store ptr null, ptr %9, align 8, !tbaa !14
  %10 = getelementptr inbounds nuw i8, ptr %0, i64 1040
  %11 = tail call i32 @sp_init_multi(ptr noundef nonnull %0, ptr noundef nonnull %10, ptr noundef null, ptr noundef null, ptr noundef null, ptr noundef null) #12
  %.not = icmp eq i32 %11, 0
  br i1 %.not, label %12, label %21

12:                                               ; preds = %5
  %13 = getelementptr inbounds nuw i8, ptr %0, i64 2080
  %14 = getelementptr inbounds nuw i8, ptr %0, i64 3120
  %15 = getelementptr inbounds nuw i8, ptr %0, i64 4160
  %16 = getelementptr inbounds nuw i8, ptr %0, i64 5200
  %17 = getelementptr inbounds nuw i8, ptr %0, i64 6240
  %18 = getelementptr inbounds nuw i8, ptr %0, i64 7280
  %19 = tail call i32 @sp_init_multi(ptr noundef nonnull %13, ptr noundef nonnull %14, ptr noundef nonnull %15, ptr noundef nonnull %16, ptr noundef nonnull %17, ptr noundef nonnull %18) #12
  %.not28 = icmp eq i32 %19, 0
  br i1 %.not28, label %21, label %20

20:                                               ; preds = %12
  tail call void @sp_clear(ptr noundef nonnull %0) #12
  tail call void @sp_clear(ptr noundef nonnull %10) #12
  br label %21

21:                                               ; preds = %12, %5, %3, %20
  %.0 = phi i32 [ %19, %20 ], [ -173, %3 ], [ %11, %5 ], [ 0, %12 ]
  ret i32 %.0
}